; ModuleID = '43/1578.c'
source_filename = "43/1578.c"
target datalayout = "e-m:e-p270:32:32-p271:32:32-p272:64:64-i64:64-f80:128-n8:16:32:64-S128"
target triple = "x86_64-pc-linux-gnu"

@.str = private unnamed_addr constant [3 x i8] c"%d\00", align 1
@.str.1 = private unnamed_addr constant [7 x i8] c"%d %d\0A\00", align 1

; Function Attrs: noinline nounwind uwtable
define dso_local i32 @main() #0 {
  %1 = alloca i32, align 4
  %2 = alloca i32, align 4
  %3 = alloca i32, align 4
  %4 = alloca i32, align 4
  %5 = alloca i32, align 4
  %6 = alloca i32, align 4
  %7 = alloca i32, align 4
  %8 = alloca i32, align 4
  %9 = alloca [20000 x i32], align 16
  store i32 0, i32* %1, align 4
  store i32 1, i32* %8, align 4
  %10 = call i32 (i8*, ...) @__isoc99_scanf(i8* getelementptr inbounds ([3 x i8], [3 x i8]* @.str, i64 0, i64 0), i32* %2)
  store i32 2, i32* %3, align 4
  br label %11

11:                                               ; preds = %46, %0
  %12 = load i32, i32* %3, align 4
  %13 = load i32, i32* %2, align 4
  %14 = icmp slt i32 %12, %13
  br i1 %14, label %15, label %49

15:                                               ; preds = %11
  %16 = load i32, i32* %3, align 4
  %17 = sub nsw i32 %16, 1
  store i32 %17, i32* %7, align 4
  %18 = load i32, i32* %3, align 4
  %19 = sub nsw i32 %18, 1
  store i32 %19, i32* %4, align 4
  br label %20

20:                                               ; preds = %32, %15
  %21 = load i32, i32* %4, align 4
  %22 = icmp sgt i32 %21, 0
  br i1 %22, label %23, label %35

23:                                               ; preds = %20
  %24 = load i32, i32* %3, align 4
  %25 = load i32, i32* %4, align 4
  %26 = srem i32 %24, %25
  %27 = icmp ne i32 %26, 0
  br i1 %27, label %28, label %31

28:                                               ; preds = %23
  %29 = load i32, i32* %7, align 4
  %30 = add nsw i32 %29, -1
  store i32 %30, i32* %7, align 4
  br label %31

31:                                               ; preds = %28, %23
  br label %32

32:                                               ; preds = %31
  %33 = load i32, i32* %4, align 4
  %34 = add nsw i32 %33, -1
  store i32 %34, i32* %4, align 4
  br label %20

35:                                               ; preds = %20
  %36 = load i32, i32* %7, align 4
  %37 = icmp eq i32 %36, 1
  br i1 %37, label %38, label %45

38:                                               ; preds = %35
  %39 = load i32, i32* %3, align 4
  %40 = load i32, i32* %8, align 4
  %41 = sext i32 %40 to i64
  %42 = getelementptr inbounds [20000 x i32], [20000 x i32]* %9, i64 0, i64 %41
  store i32 %39, i32* %42, align 4
  %43 = load i32, i32* %8, align 4
  %44 = add nsw i32 %43, 1
  store i32 %44, i32* %8, align 4
  br label %45

45:                                               ; preds = %38, %35
  br label %46

46:                                               ; preds = %45
  %47 = load i32, i32* %3, align 4
  %48 = add nsw i32 %47, 1
  store i32 %48, i32* %3, align 4
  br label %11

49:                                               ; preds = %11
  %50 = load i32, i32* %8, align 4
  %51 = sub nsw i32 %50, 1
  store i32 %51, i32* %5, align 4
  br label %52

52:                                               ; preds = %87, %49
  %53 = load i32, i32* %5, align 4
  %54 = icmp sgt i32 %53, 0
  br i1 %54, label %55, label %90

55:                                               ; preds = %52
  store i32 1, i32* %6, align 4
  br label %56

56:                                               ; preds = %83, %55
  %57 = load i32, i32* %6, align 4
  %58 = load i32, i32* %5, align 4
  %59 = icmp sle i32 %57, %58
  br i1 %59, label %60, label %86

60:                                               ; preds = %56
  %61 = load i32, i32* %5, align 4
  %62 = sext i32 %61 to i64
  %63 = getelementptr inbounds [20000 x i32], [20000 x i32]* %9, i64 0, i64 %62
  %64 = load i32, i32* %63, align 4
  %65 = load i32, i32* %6, align 4
  %66 = sext i32 %65 to i64
  %67 = getelementptr inbounds [20000 x i32], [20000 x i32]* %9, i64 0, i64 %66
  %68 = load i32, i32* %67, align 4
  %69 = add nsw i32 %64, %68
  %70 = load i32, i32* %2, align 4
  %71 = icmp eq i32 %69, %70
  br i1 %71, label %72, label %82

72:                                               ; preds = %60
  %73 = load i32, i32* %6, align 4
  %74 = sext i32 %73 to i64
  %75 = getelementptr inbounds [20000 x i32], [20000 x i32]* %9, i64 0, i64 %74
  %76 = load i32, i32* %75, align 4
  %77 = load i32, i32* %5, align 4
  %78 = sext i32 %77 to i64
  %79 = getelementptr inbounds [20000 x i32], [20000 x i32]* %9, i64 0, i64 %78
  %80 = load i32, i32* %79, align 4
  %81 = call i32 (i8*, ...) @printf(i8* getelementptr inbounds ([7 x i8], [7 x i8]* @.str.1, i64 0, i64 0), i32 %76, i32 %80)
  br label %82

82:                                               ; preds = %72, %60
  br label %83

83:                                               ; preds = %82
  %84 = load i32, i32* %6, align 4
  %85 = add nsw i32 %84, 1
  store i32 %85, i32* %6, align 4
  br label %56

86:                                               ; preds = %56
  br label %87

87:                                               ; preds = %86
  %88 = load i32, i32* %5, align 4
  %89 = add nsw i32 %88, -1
  store i32 %89, i32* %5, align 4
  br label %52

90:                                               ; preds = %52
  %91 = call i32 @getchar()
  %92 = call i32 @getchar()
  ret i32 0
}

declare dso_local i32 @__isoc99_scanf(i8*, ...) #1

declare dso_local i32 @printf(i8*, ...) #1

declare dso_local i32 @getchar() #1


!llvm.module.flags = !{!0}
!llvm.ident = !{!1}

!0 = !{i32 1, !"wchar_size", i32 4}
!1 = !{!"clang version 10.0.0-4ubuntu1 "}
